target datalayout = "e-m:e-p270:32:32-p271:32:32-p272:64:64-i64:64-i128:128-f80:128-n8:16:32:64-S128"
target triple = "x86_64-pc-linux-gnu"

%struct.H5D_t = type { %struct.H5O_loc_t, %struct.H5G_name_t, ptr }
%struct.H5O_loc_t = type { ptr, i64, i8 }
%struct.H5G_name_t = type { ptr, ptr, i32 }
%struct.H5D_shared_t = type { i64, i8, i64, ptr, ptr, i64, i64, %struct.H5D_dcpl_cache_t, %struct.H5O_layout_t, i8, i32, [32 x i64], [32 x i64], [32 x i64], %struct.anon.6, %struct.H5D_append_flush_t, ptr, ptr }
%struct.H5D_dcpl_cache_t = type { %struct.H5O_fill_t, %struct.H5O_pline_t, %struct.H5O_efl_t }
%struct.H5O_fill_t = type { %struct.H5O_shared_t, i32, ptr, i64, ptr, i32, i32, i8 }
%struct.H5O_shared_t = type { i32, ptr, i32, %union.anon }
%union.anon = type { %struct.H5O_mesg_loc_t }
%struct.H5O_mesg_loc_t = type { i32, i64 }
%struct.H5O_pline_t = type { %struct.H5O_shared_t, i32, i64, i64, ptr }
%struct.H5O_efl_t = type { i64, i64, i64, ptr }
%struct.H5O_layout_t = type { i32, i32, ptr, %union.anon.0, %struct.H5O_storage_t }
%union.anon.0 = type { %struct.H5O_layout_chunk_t }
%struct.H5O_layout_chunk_t = type { i32, i8, i32, [33 x i32], i32, i32, i64, i64, [33 x i64], [33 x i64], [33 x i64], [33 x i64], %union.anon.1 }
%union.anon.1 = type { %struct.H5O_layout_chunk_earray_t }
%struct.H5O_layout_chunk_earray_t = type { %struct.anon.2, i32, [33 x i32], [33 x i64], [33 x i64] }
%struct.anon.2 = type { i8, i8, i8, i8, i8 }
%struct.H5O_storage_t = type { i32, %union.anon.4 }
%union.anon.4 = type { %struct.H5O_storage_virtual_t }
%struct.H5O_storage_virtual_t = type { %struct.H5HG_t, i64, ptr, i64, [32 x i64], i32, i64, i64, i64, i8 }
%struct.H5HG_t = type { i64, i64 }
%struct.anon.6 = type { %struct.H5D_rdcdc_t, %struct.H5D_rdcc_t }
%struct.H5D_rdcdc_t = type { ptr, i64, i64, i64, i8 }
%struct.H5D_rdcc_t = type { %struct.anon.7, i64, i64, double, ptr, ptr, ptr, i64, i32, %struct.H5D_chunk_cached_t, ptr, ptr, ptr, ptr, [32 x i64], [32 x i64], [32 x i32] }
%struct.anon.7 = type { i32, i32, i32, i32 }
%struct.H5D_chunk_cached_t = type { i8, [33 x i64], i64, i32, i64, i32 }
%struct.H5D_append_flush_t = type { i32, [32 x i64], ptr, ptr }
%struct.H5D_fill_buf_info_t = type { ptr, ptr, ptr, ptr, ptr, ptr, ptr, ptr, i64, i8, ptr, i64, ptr, ptr, i64, i64, i64, i64, i8 }
%struct.H5D_chunk_readvv_ud_t = type { ptr, ptr }

@H5D_init_g = external global i8, align 1
@H5_libterm_g = external global i8, align 1
@.str.1 = private unnamed_addr constant [102 x i8] c"generated/home/dtcxzyw/WorkSpace/Projects/compilers/llvm-opt-benchmark/bench/hdf5/hdf5/src/H5Dchunk.c\00", align 1
@H5E_DATASET_g = external global i64, align 8
@H5E_CANTINIT_g = external global i64, align 8
@H5E_CANTFREE_g = external global i64, align 8
@.str.23 = private unnamed_addr constant [34 x i8] c"can't initialize fill buffer info\00", align 1
@H5E_CANTCONVERT_g = external global i64, align 8
@.str.30 = private unnamed_addr constant [31 x i8] c"can't refill fill value buffer\00", align 1
@.str.32 = private unnamed_addr constant [31 x i8] c"Can't release fill buffer info\00", align 1
@__func__.H5D__nonexistent_readvv_cb = private unnamed_addr constant [27 x i8] c"H5D__nonexistent_readvv_cb\00", align 1

; Function Attrs: nounwind uwtable
define internal i32 @H5D__nonexistent_readvv_cb(i64 noundef %0, i64 noundef %1, i64 noundef %2, ptr noundef %3) #0 {
  %5 = alloca i64, align 8
  %6 = alloca i64, align 8
  %7 = alloca i64, align 8
  %8 = alloca ptr, align 8
  %9 = alloca ptr, align 8
  %10 = alloca %struct.H5D_fill_buf_info_t, align 8
  %11 = alloca i8, align 1
  %12 = alloca i32, align 4
  %13 = alloca i8, align 1
  store i64 %0, ptr %5, align 8, !tbaa !24
  store i64 %1, ptr %6, align 8, !tbaa !24
  store i64 %2, ptr %7, align 8, !tbaa !24
  store ptr %3, ptr %8, align 8, !tbaa !154
  call void @llvm.lifetime.start.p0(i64 8, ptr %9) #10
  %14 = load ptr, ptr %8, align 8, !tbaa !154
  store ptr %14, ptr %9, align 8, !tbaa !456
  call void @llvm.lifetime.start.p0(i64 152, ptr %10) #10
  call void @llvm.lifetime.start.p0(i64 1, ptr %11) #10
  store i8 0, ptr %11, align 1, !tbaa !12
  call void @llvm.lifetime.start.p0(i64 4, ptr %12) #10
  store i32 0, ptr %12, align 4, !tbaa !10
  call void @llvm.lifetime.start.p0(i64 1, ptr %13) #10
  store i8 0, ptr %13, align 1, !tbaa !12
  %15 = load i8, ptr @H5D_init_g, align 1, !tbaa !12, !range !14, !noundef !15
  %16 = trunc i8 %15 to i1
  br i1 %16, label %21, label %17

17:                                               ; preds = %4
  %18 = load i8, ptr @H5_libterm_g, align 1, !tbaa !12, !range !14, !noundef !15
  %19 = trunc i8 %18 to i1
  %20 = xor i1 %19, true
  br label %21

21:                                               ; preds = %17, %4
  %22 = phi i1 [ true, %4 ], [ %20, %17 ]
  %23 = xor i1 %22, true
  %24 = xor i1 %23, true
  %25 = zext i1 %24 to i32
  %26 = sext i32 %25 to i64
  %27 = call i64 @llvm.expect.i64(i64 %26, i64 1)
  %28 = icmp ne i64 %27, 0
  br i1 %28, label %29, label %123

29:                                               ; preds = %21
  %30 = load ptr, ptr %9, align 8, !tbaa !456
  %31 = getelementptr inbounds nuw %struct.H5D_chunk_readvv_ud_t, ptr %30, i32 0, i32 0
  %32 = load ptr, ptr %31, align 8, !tbaa !453
  %33 = load i64, ptr %6, align 8, !tbaa !24
  %34 = getelementptr inbounds nuw i8, ptr %32, i64 %33
  %35 = load ptr, ptr %9, align 8, !tbaa !456
  %36 = getelementptr inbounds nuw %struct.H5D_chunk_readvv_ud_t, ptr %35, i32 0, i32 1
  %37 = load ptr, ptr %36, align 8, !tbaa !455
  %38 = getelementptr inbounds nuw %struct.H5D_t, ptr %37, i32 0, i32 2
  %39 = load ptr, ptr %38, align 8, !tbaa !16
  %40 = getelementptr inbounds nuw %struct.H5D_shared_t, ptr %39, i32 0, i32 7
  %41 = getelementptr inbounds nuw %struct.H5D_dcpl_cache_t, ptr %40, i32 0, i32 0
  %42 = load ptr, ptr %9, align 8, !tbaa !456
  %43 = getelementptr inbounds nuw %struct.H5D_chunk_readvv_ud_t, ptr %42, i32 0, i32 1
  %44 = load ptr, ptr %43, align 8, !tbaa !455
  %45 = getelementptr inbounds nuw %struct.H5D_t, ptr %44, i32 0, i32 2
  %46 = load ptr, ptr %45, align 8, !tbaa !16
  %47 = getelementptr inbounds nuw %struct.H5D_shared_t, ptr %46, i32 0, i32 3
  %48 = load ptr, ptr %47, align 8, !tbaa !244
  %49 = load i64, ptr %7, align 8, !tbaa !24
  %50 = call i32 @H5D__fill_init(ptr noundef %10, ptr noundef %34, ptr noundef null, ptr noundef null, ptr noundef null, ptr noundef null, ptr noundef %41, ptr noundef %48, i64 noundef 0, i64 noundef %49)
  %51 = icmp slt i32 %50, 0
  br i1 %51, label %52, label %71

52:                                               ; preds = %29
  br label %53

53:                                               ; preds = %52
  br label %54

54:                                               ; preds = %53
  br label %55

55:                                               ; preds = %54
  %56 = load i64, ptr @H5E_DATASET_g, align 8, !tbaa !24
  %57 = load i64, ptr @H5E_CANTINIT_g, align 8, !tbaa !24
  %58 = call i32 (ptr, ptr, i32, i64, i64, ptr, ...) @H5E_printf_stack(ptr noundef @.str.1, ptr noundef @__func__.H5D__nonexistent_readvv_cb, i32 noundef 7322, i64 noundef %56, i64 noundef %57, ptr noundef @.str.23)
  br label %59

59:                                               ; preds = %55
  br label %60

60:                                               ; preds = %59
  store i8 1, ptr %13, align 1, !tbaa !12
  %61 = load i8, ptr %13, align 1, !tbaa !12, !range !14, !noundef !15
  %62 = trunc i8 %61 to i1
  %63 = zext i1 %62 to i8
  store i8 %63, ptr %13, align 1, !tbaa !12
  br label %64

64:                                               ; preds = %60
  br label %65

65:                                               ; preds = %64
  br label %66

66:                                               ; preds = %65
  store i32 -1, ptr %12, align 4, !tbaa !10
  br label %100

67:                                               ; No predecessors!
  br label %68

68:                                               ; preds = %67
  br label %69

69:                                               ; preds = %68
  br label %70

70:                                               ; preds = %69
  br label %71

71:                                               ; preds = %70, %29
  store i8 1, ptr %11, align 1, !tbaa !12
  %72 = getelementptr inbounds nuw %struct.H5D_fill_buf_info_t, ptr %10, i32 0, i32 18
  %73 = load i8, ptr %72, align 8, !tbaa !266, !range !14, !noundef !15
  %74 = trunc i8 %73 to i1
  br i1 %74, label %75, label %99

75:                                               ; preds = %71
  %76 = getelementptr inbounds nuw %struct.H5D_fill_buf_info_t, ptr %10, i32 0, i32 17
  %77 = load i64, ptr %76, align 8, !tbaa !271
  %78 = call i32 @H5D__fill_refill_vl(ptr noundef %10, i64 noundef %77)
  %79 = icmp slt i32 %78, 0
  br i1 %79, label %80, label %99

80:                                               ; preds = %75
  br label %81

81:                                               ; preds = %80
  br label %82

82:                                               ; preds = %81
  br label %83

83:                                               ; preds = %82
  %84 = load i64, ptr @H5E_DATASET_g, align 8, !tbaa !24
  %85 = load i64, ptr @H5E_CANTCONVERT_g, align 8, !tbaa !24
  %86 = call i32 (ptr, ptr, i32, i64, i64, ptr, ...) @H5E_printf_stack(ptr noundef @.str.1, ptr noundef @__func__.H5D__nonexistent_readvv_cb, i32 noundef 7327, i64 noundef %84, i64 noundef %85, ptr noundef @.str.30)
  br label %87

87:                                               ; preds = %83
  br label %88

88:                                               ; preds = %87
  store i8 1, ptr %13, align 1, !tbaa !12
  %89 = load i8, ptr %13, align 1, !tbaa !12, !range !14, !noundef !15
  %90 = trunc i8 %89 to i1
  %91 = zext i1 %90 to i8
  store i8 %91, ptr %13, align 1, !tbaa !12
  br label %92

92:                                               ; preds = %88
  br label %93

93:                                               ; preds = %92
  br label %94

94:                                               ; preds = %93
  store i32 -1, ptr %12, align 4, !tbaa !10
  br label %100

95:                                               ; No predecessors!
  br label %96

96:                                               ; preds = %95
  br label %97

97:                                               ; preds = %96
  br label %98

98:                                               ; preds = %97
  br label %99

99:                                               ; preds = %98, %75, %71
  br label %100

100:                                              ; preds = %99, %94, %66
  %101 = load i8, ptr %11, align 1, !tbaa !12, !range !14, !noundef !15
  %102 = trunc i8 %101 to i1
  br i1 %102, label %103, label %122

103:                                              ; preds = %100
  %104 = call i32 @H5D__fill_term(ptr noundef %10)
  %105 = icmp slt i32 %104, 0
  br i1 %105, label %106, label %122

106:                                              ; preds = %103
  br label %107

107:                                              ; preds = %106
  br label %108

108:                                              ; preds = %107
  br label %109

109:                                              ; preds = %108
  %110 = load i64, ptr @H5E_DATASET_g, align 8, !tbaa !24
  %111 = load i64, ptr @H5E_CANTFREE_g, align 8, !tbaa !24
  %112 = call i32 (ptr, ptr, i32, i64, i64, ptr, ...) @H5E_printf_stack(ptr noundef @.str.1, ptr noundef @__func__.H5D__nonexistent_readvv_cb, i32 noundef 7332, i64 noundef %110, i64 noundef %111, ptr noundef @.str.32)
  br label %113

113:                                              ; preds = %109
  br label %114

114:                                              ; preds = %113
  store i8 1, ptr %13, align 1, !tbaa !12
  %115 = load i8, ptr %13, align 1, !tbaa !12, !range !14, !noundef !15
  %116 = trunc i8 %115 to i1
  %117 = zext i1 %116 to i8
  store i8 %117, ptr %13, align 1, !tbaa !12
  br label %118

118:                                              ; preds = %114
  br label %119

119:                                              ; preds = %118
  store i32 -1, ptr %12, align 4, !tbaa !10
  br label %120

120:                                              ; preds = %119
  br label %121

121:                                              ; preds = %120
  br label %122

122:                                              ; preds = %121, %103, %100
  br label %123

123:                                              ; preds = %122, %21
  %124 = load i32, ptr %12, align 4, !tbaa !10
  call void @llvm.lifetime.end.p0(i64 1, ptr %13) #10
  call void @llvm.lifetime.end.p0(i64 4, ptr %12) #10
  call void @llvm.lifetime.end.p0(i64 1, ptr %11) #10
  call void @llvm.lifetime.end.p0(i64 152, ptr %10) #10
  call void @llvm.lifetime.end.p0(i64 8, ptr %9) #10
  ret i32 %124
}