; Function Attrs: nounwind uwtable
define internal range(i32 -1, 1) i32 @H5D__nonexistent_readvv_cb(i64 %0, i64 noundef %1, i64 noundef %2, ptr noundef readonly captures(none) %3) #0 {
  %5 = alloca %struct.H5D_fill_buf_info_t, align 8
  call void @llvm.lifetime.start.p0(i64 152, ptr nonnull %5) #15
  %6 = load i8, ptr @H5D_init_g, align 1, !tbaa !3, !range !7, !noundef !8
  %7 = trunc nuw i8 %6 to i1
  %8 = load i8, ptr @H5_libterm_g, align 1, !range !7
  %9 = trunc nuw i8 %8 to i1
  %10 = xor i1 %9, true
  %11 = select i1 %7, i1 true, i1 %10
  br i1 %11, label %12, label %48, !prof !9

12:                                               ; preds = %4
  %13 = load ptr, ptr %3, align 8, !tbaa !395
  %14 = getelementptr inbounds nuw i8, ptr %13, i64 %1
  %15 = getelementptr inbounds nuw i8, ptr %3, i64 8
  %16 = load ptr, ptr %15, align 8, !tbaa !397
  %17 = getelementptr inbounds nuw i8, ptr %16, i64 48
  %18 = load ptr, ptr %17, align 8, !tbaa !10
  %19 = getelementptr inbounds nuw i8, ptr %18, i64 56
  %20 = getelementptr inbounds nuw i8, ptr %18, i64 24
  %21 = load ptr, ptr %20, align 8, !tbaa !145
  %22 = call i32 @H5D__fill_init(ptr noundef nonnull %5, ptr noundef %14, ptr noundef null, ptr noundef null, ptr noundef null, ptr noundef null, ptr noundef nonnull %19, ptr noundef %21, i64 noundef 0, i64 noundef %2) #15
  %23 = icmp sgt i32 %22, -1
  br i1 %23, label %24, label %37

24:                                               ; preds = %12
  %25 = getelementptr inbounds nuw i8, ptr %5, i64 144
  %26 = load i8, ptr %25, align 8, !tbaa !257, !range !7, !noundef !8
  %27 = trunc nuw i8 %26 to i1
  br i1 %27, label %28, label %41

28:                                               ; preds = %24
  %29 = getelementptr inbounds nuw i8, ptr %5, i64 136
  %30 = load i64, ptr %29, align 8, !tbaa !263
  %31 = call i32 @H5D__fill_refill_vl(ptr noundef nonnull %5, i64 noundef %30) #15
  %32 = icmp slt i32 %31, 0
  br i1 %32, label %33, label %41

33:                                               ; preds = %28
  %34 = load i64, ptr @H5E_DATASET_g, align 8, !tbaa !21
  %35 = load i64, ptr @H5E_CANTCONVERT_g, align 8, !tbaa !21
  %36 = call i32 (ptr, ptr, i32, i64, i64, ptr, ...) @H5E_printf_stack(ptr noundef nonnull @.str.1, ptr noundef nonnull @__func__.H5D__nonexistent_readvv_cb, i32 noundef 7327, i64 noundef %34, i64 noundef %35, ptr noundef nonnull @.str.30) #15
  br label %41

37:                                               ; preds = %12
  %38 = load i64, ptr @H5E_DATASET_g, align 8, !tbaa !21
  %39 = load i64, ptr @H5E_CANTINIT_g, align 8, !tbaa !21
  %40 = call i32 (ptr, ptr, i32, i64, i64, ptr, ...) @H5E_printf_stack(ptr noundef nonnull @.str.1, ptr noundef nonnull @__func__.H5D__nonexistent_readvv_cb, i32 noundef 7322, i64 noundef %38, i64 noundef %39, ptr noundef nonnull @.str.23) #15
  br label %48

41:                                               ; preds = %24, %28, %33
  %.1.ph = phi i32 [ 0, %24 ], [ 0, %28 ], [ -1, %33 ]
  %42 = call i32 @H5D__fill_term(ptr noundef nonnull %5) #15
  %43 = icmp slt i32 %42, 0
  br i1 %43, label %44, label %48

44:                                               ; preds = %41
  %45 = load i64, ptr @H5E_DATASET_g, align 8, !tbaa !21
  %46 = load i64, ptr @H5E_CANTFREE_g, align 8, !tbaa !21
  %47 = call i32 (ptr, ptr, i32, i64, i64, ptr, ...) @H5E_printf_stack(ptr noundef nonnull @.str.1, ptr noundef nonnull @__func__.H5D__nonexistent_readvv_cb, i32 noundef 7332, i64 noundef %45, i64 noundef %46, ptr noundef nonnull @.str.32) #15
  br label %48

48:                                               ; preds = %37, %41, %44, %4
  %.0 = phi i32 [ -1, %44 ], [ %.1.ph, %41 ], [ -1, %37 ], [ 0, %4 ]
  call void @llvm.lifetime.end.p0(i64 152, ptr nonnull %5) #15
  ret i32 %.0
}